; Function Attrs: mustprogress uwtable
define dso_local void @_ZNK13ArrayVariable6OutputERSo(ptr noundef nonnull align 8 dereferenceable(288) %0, ptr noundef nonnull align 8 dereferenceable(8) %1) unnamed_addr #3 align 2 personality ptr @__gxx_personality_v0 {
  %3 = alloca %"class.std::__cxx11::basic_string", align 8
  %4 = alloca %"class.std::__cxx11::basic_string", align 8
  %5 = getelementptr inbounds i8, ptr %0, i64 200
  %6 = load ptr, ptr %5, align 8
  %7 = icmp eq ptr %6, null
  %8 = load ptr, ptr %0, align 8
  %9 = getelementptr inbounds i8, ptr %8, i64 48
  %10 = load ptr, ptr %9, align 8
  br i1 %7, label %11, label %16

11:                                               ; preds = %2
  call void %10(ptr dead_on_unwind nonnull writable sret(%"class.std::__cxx11::basic_string") align 8 %3, ptr noundef nonnull align 8 dereferenceable(200) %0)
  %12 = invoke noundef nonnull align 8 dereferenceable(8) ptr @_ZStlsIcSt11char_traitsIcESaIcEERSt13basic_ostreamIT_T0_ES7_RKNSt7__cxx1112basic_stringIS4_S5_T1_EE(ptr noundef nonnull align 8 dereferenceable(8) %1, ptr noundef nonnull align 8 dereferenceable(32) %3)
          to label %13 unwind label %14

13:                                               ; preds = %11
  call void @_ZNSt7__cxx1112basic_stringIcSt11char_traitsIcESaIcEED1Ev(ptr noundef nonnull align 8 dereferenceable(32) %3) #19
  br label %.loopexit

14:                                               ; preds = %11
  %15 = landingpad { ptr, i32 }
          cleanup
  br label %41

16:                                               ; preds = %2
  call void %10(ptr dead_on_unwind nonnull writable sret(%"class.std::__cxx11::basic_string") align 8 %4, ptr noundef nonnull align 8 dereferenceable(200) %0)
  %17 = invoke noundef nonnull align 8 dereferenceable(8) ptr @_ZStlsIcSt11char_traitsIcESaIcEERSt13basic_ostreamIT_T0_ES7_RKNSt7__cxx1112basic_stringIS4_S5_T1_EE(ptr noundef nonnull align 8 dereferenceable(8) %1, ptr noundef nonnull align 8 dereferenceable(32) %4)
          to label %18 unwind label %39

18:                                               ; preds = %16
  call void @_ZNSt7__cxx1112basic_stringIcSt11char_traitsIcESaIcEED1Ev(ptr noundef nonnull align 8 dereferenceable(32) %4) #19
  %19 = getelementptr inbounds i8, ptr %0, i64 240
  %20 = getelementptr inbounds i8, ptr %0, i64 248
  %21 = load ptr, ptr %20, align 8
  %22 = load ptr, ptr %19, align 8
  %.not = icmp eq ptr %21, %22
  br i1 %.not, label %.loopexit, label %.lr.ph

.lr.ph:                                           ; preds = %18, %.lr.ph
  %.013 = phi i64 [ %31, %.lr.ph ], [ 0, %18 ]
  %23 = call noundef nonnull align 8 dereferenceable(8) ptr @_ZStlsISt11char_traitsIcEERSt13basic_ostreamIcT_ES5_PKc(ptr noundef nonnull align 8 dereferenceable(8) %1, ptr noundef nonnull @.str.7)
  %24 = load ptr, ptr %19, align 8
  %25 = getelementptr inbounds ptr, ptr %24, i64 %.013
  %26 = load ptr, ptr %25, align 8
  %27 = load ptr, ptr %26, align 8
  %28 = getelementptr inbounds i8, ptr %27, i64 144
  %29 = load ptr, ptr %28, align 8
  call void %29(ptr noundef nonnull align 8 dereferenceable(24) %26, ptr noundef nonnull align 8 dereferenceable(8) %1)
  %30 = call noundef nonnull align 8 dereferenceable(8) ptr @_ZStlsISt11char_traitsIcEERSt13basic_ostreamIcT_ES5_PKc(ptr noundef nonnull align 8 dereferenceable(8) %1, ptr noundef nonnull @.str.8)
  %31 = add nuw i64 %.013, 1
  %32 = load ptr, ptr %20, align 8
  %33 = load ptr, ptr %19, align 8
  %34 = ptrtoint ptr %32 to i64
  %35 = ptrtoint ptr %33 to i64
  %36 = sub i64 %34, %35
  %37 = ashr exact i64 %36, 3
  %38 = icmp ult i64 %31, %37
  br i1 %38, label %.lr.ph, label %.loopexit, !llvm.loop !28

39:                                               ; preds = %16
  %40 = landingpad { ptr, i32 }
          cleanup
  br label %41

.loopexit:                                        ; preds = %.lr.ph, %18, %13
  ret void

41:                                               ; preds = %39, %14
  %.sink = phi ptr [ %4, %39 ], [ %3, %14 ]
  %.pn = phi { ptr, i32 } [ %40, %39 ], [ %15, %14 ]
  call void @_ZNSt7__cxx1112basic_stringIcSt11char_traitsIcESaIcEED1Ev(ptr noundef nonnull align 8 dereferenceable(32) %.sink) #19
  resume { ptr, i32 } %.pn
}